target datalayout = "e-m:e-p270:32:32-p271:32:32-p272:64:64-i64:64-i128:128-f80:128-n8:16:32:64-S128"
target triple = "x86_64-pc-linux-gnu"

%struct.sp_int = type { i16, i16, [129 x i64] }

; Function Attrs: nounwind uwtable
define i32 @sp_cmp_d(ptr noundef %0, i64 noundef %1) #0 {
  %3 = alloca ptr, align 8
  %4 = alloca i64, align 8
  %5 = alloca i32, align 4
  store ptr %0, ptr %3, align 8, !tbaa !3
  store i64 %1, ptr %4, align 8, !tbaa !16
  call void @llvm.lifetime.start.p0(i64 4, ptr %5) #8
  store i32 0, ptr %5, align 4, !tbaa !8
  %6 = load ptr, ptr %3, align 8, !tbaa !3
  %7 = icmp eq ptr %6, null
  br i1 %7, label %8, label %9

8:                                                ; preds = %2
  store i32 -1, ptr %5, align 4, !tbaa !8
  br label %47

9:                                                ; preds = %2
  %10 = load ptr, ptr %3, align 8, !tbaa !3
  %11 = getelementptr inbounds nuw %struct.sp_int, ptr %10, i32 0, i32 0
  %12 = load i16, ptr %11, align 8, !tbaa !15
  %13 = zext i16 %12 to i32
  %14 = icmp sgt i32 %13, 1
  br i1 %14, label %15, label %16

15:                                               ; preds = %9
  store i32 1, ptr %5, align 4, !tbaa !8
  br label %46

16:                                               ; preds = %9
  %17 = load ptr, ptr %3, align 8, !tbaa !3
  %18 = getelementptr inbounds nuw %struct.sp_int, ptr %17, i32 0, i32 0
  %19 = load i16, ptr %18, align 8, !tbaa !15
  %20 = zext i16 %19 to i32
  %21 = icmp eq i32 %20, 0
  br i1 %21, label %22, label %27

22:                                               ; preds = %16
  %23 = load i64, ptr %4, align 8, !tbaa !16
  %24 = icmp ne i64 %23, 0
  br i1 %24, label %25, label %26

25:                                               ; preds = %22
  store i32 -1, ptr %5, align 4, !tbaa !8
  br label %26

26:                                               ; preds = %25, %22
  br label %45

27:                                               ; preds = %16
  %28 = load ptr, ptr %3, align 8, !tbaa !3
  %29 = getelementptr inbounds nuw %struct.sp_int, ptr %28, i32 0, i32 2
  %30 = getelementptr inbounds [129 x i64], ptr %29, i64 0, i64 0
  %31 = load i64, ptr %30, align 8, !tbaa !16
  %32 = load i64, ptr %4, align 8, !tbaa !16
  %33 = icmp ugt i64 %31, %32
  br i1 %33, label %34, label %35

34:                                               ; preds = %27
  store i32 1, ptr %5, align 4, !tbaa !8
  br label %44

35:                                               ; preds = %27
  %36 = load ptr, ptr %3, align 8, !tbaa !3
  %37 = getelementptr inbounds nuw %struct.sp_int, ptr %36, i32 0, i32 2
  %38 = getelementptr inbounds [129 x i64], ptr %37, i64 0, i64 0
  %39 = load i64, ptr %38, align 8, !tbaa !16
  %40 = load i64, ptr %4, align 8, !tbaa !16
  %41 = icmp ult i64 %39, %40
  br i1 %41, label %42, label %43

42:                                               ; preds = %35
  store i32 -1, ptr %5, align 4, !tbaa !8
  br label %43

43:                                               ; preds = %42, %35
  br label %44

44:                                               ; preds = %43, %34
  br label %45

45:                                               ; preds = %44, %26
  br label %46

46:                                               ; preds = %45, %15
  br label %47

47:                                               ; preds = %46, %8
  %48 = load i32, ptr %5, align 4, !tbaa !8
  call void @llvm.lifetime.end.p0(i64 4, ptr %5) #8
  ret i32 %48
}