; Function Attrs: mustprogress nofree norecurse nosync nounwind willreturn memory(argmem: read) uwtable
define range(i32 -1, 2) i32 @sp_cmp_d(ptr noundef readonly captures(address_is_null) %0, i64 noundef %1) local_unnamed_addr #10 {
  %3 = icmp eq ptr %0, null
  br i1 %3, label %16, label %4

4:                                                ; preds = %2
  %5 = load i16, ptr %0, align 8, !tbaa !12
  %6 = icmp ugt i16 %5, 1
  br i1 %6, label %16, label %7

7:                                                ; preds = %4
  %8 = icmp eq i16 %5, 0
  br i1 %8, label %9, label %10

9:                                                ; preds = %7
  %.not = icmp ne i64 %1, 0
  %spec.select = sext i1 %.not to i32
  br label %16

10:                                               ; preds = %7
  %11 = getelementptr inbounds nuw i8, ptr %0, i64 8
  %12 = load i64, ptr %11, align 8, !tbaa !8
  %13 = icmp ugt i64 %12, %1
  br i1 %13, label %16, label %14

14:                                               ; preds = %10
  %15 = icmp ult i64 %12, %1
  %spec.select12 = sext i1 %15 to i32
  br label %16

16:                                               ; preds = %14, %9, %10, %4, %2
  %.0 = phi i32 [ -1, %2 ], [ 1, %4 ], [ %spec.select, %9 ], [ 1, %10 ], [ %spec.select12, %14 ]
  ret i32 %.0
}